; Function Attrs: nounwind uwtable
define internal ptr @unicode_iter(ptr noundef %0) #0 {
  %2 = getelementptr i8, ptr %0, i64 8
  %.val = load ptr, ptr %2, align 8, !tbaa !187
  %3 = getelementptr i8, ptr %.val, i64 168
  %.val11 = load i64, ptr %3, align 8, !tbaa !188
  %4 = and i64 %.val11, 268435456
  %.not = icmp eq i64 %4, 0
  br i1 %.not, label %5, label %6

5:                                                ; preds = %1
  tail call void @_PyErr_BadInternalCall(ptr noundef nonnull @.str.8, i32 noundef 16195) #41
  br label %41

6:                                                ; preds = %1
  %7 = getelementptr i8, ptr %0, i64 34
  %.val12 = load i16, ptr %7, align 2
  %8 = and i16 %.val12, 24
  %.not10.not = icmp eq i16 %8, 24
  %_PyUnicodeASCIIIter_Type.PyUnicodeIter_Type = select i1 %.not10.not, ptr @_PyUnicodeASCIIIter_Type, ptr @PyUnicodeIter_Type
  %9 = tail call ptr @_PyObject_GC_New(ptr noundef nonnull %_PyUnicodeASCIIIter_Type.PyUnicodeIter_Type) #41
  %10 = icmp eq ptr %9, null
  br i1 %10, label %41, label %11

11:                                               ; preds = %6
  %12 = getelementptr inbounds nuw i8, ptr %9, i64 16
  store i64 0, ptr %12, align 8, !tbaa !504
  %13 = load i32, ptr %0, align 8, !tbaa !195
  %14 = icmp slt i32 %13, 0
  br i1 %14, label %_Py_NewRef.exit, label %15

15:                                               ; preds = %11
  %16 = add nuw i32 %13, 1
  store i32 %16, ptr %0, align 8, !tbaa !195
  br label %_Py_NewRef.exit

_Py_NewRef.exit:                                  ; preds = %11, %15
  %17 = getelementptr inbounds nuw i8, ptr %9, i64 24
  store ptr %0, ptr %17, align 8, !tbaa !506
  %18 = getelementptr i8, ptr %9, i64 -16
  %19 = tail call align 8 ptr @llvm.threadlocal.address.p0(ptr align 8 @_Py_tss_tstate)
  %20 = load ptr, ptr %19, align 8, !tbaa !4
  %21 = getelementptr inbounds nuw i8, ptr %20, i64 16
  %22 = load ptr, ptr %21, align 8, !tbaa !9
  %23 = getelementptr inbounds nuw i8, ptr %22, i64 7424
  %24 = getelementptr inbounds nuw i8, ptr %22, i64 7432
  %25 = load i64, ptr %24, align 8, !tbaa !507
  %26 = inttoptr i64 %25 to ptr
  %27 = ptrtoint ptr %18 to i64
  %28 = load i64, ptr %26, align 8, !tbaa !508
  %29 = and i64 %28, 3
  %30 = or i64 %29, %27
  store i64 %30, ptr %26, align 8, !tbaa !508
  %31 = getelementptr i8, ptr %9, i64 -8
  %32 = load i64, ptr %31, align 8, !tbaa !507
  %33 = and i64 %32, 3
  %34 = or i64 %33, %25
  store i64 %34, ptr %31, align 8, !tbaa !507
  %35 = getelementptr inbounds nuw i8, ptr %22, i64 7632
  %36 = load i32, ptr %35, align 8, !tbaa !509
  %37 = xor i32 %36, 1
  %38 = sext i32 %37 to i64
  %39 = ptrtoint ptr %23 to i64
  %40 = or i64 %38, %39
  store i64 %40, ptr %18, align 8, !tbaa !508
  store i64 %27, ptr %24, align 8, !tbaa !507
  br label %41

41:                                               ; preds = %6, %_Py_NewRef.exit, %5
  %.09 = phi ptr [ %9, %_Py_NewRef.exit ], [ null, %5 ], [ null, %6 ]
  ret ptr %.09
}